(dp0
Vengine
p1
Vpdflatex
p2
sVpackages
p3
c__builtin__
set
p4
((lp5
tp6
Rp7
sVfiles_with_guttermarks
p8
g4
((lp9
V/Volumes/HardDrive/Users/mark/Research/Reports/Chapters/./3.Numerical_Methods.tex
p10
aV/Volumes/HardDrive/Users/mark/Research/Reports/Chapters/3.Numerical_Methods.tex
p11
aS'3.Numerical_Methods.tex'
p12
atp13
Rp14
sVsynctex
p15
I01
s.